target datalayout = "e-m:e-p270:32:32-p271:32:32-p272:64:64-i64:64-i128:128-f80:128-n8:16:32:64-S128"
target triple = "x86_64-pc-linux-gnu"

%"class.std::__1::locale::facet" = type { %"class.std::__1::__shared_count" }
%"class.std::__1::__shared_count" = type { ptr, i64 }
%"class.std::__1::codecvt.37" = type { %"class.std::__1::locale::facet", ptr }
%"class.std::__1::__codecvt_utf16.66" = type <{ %"class.std::__1::codecvt.37", i64, i32, [4 x i8] }>

; Function Attrs: mustprogress nounwind uwtable
define internal noundef i32 @_ZNSt3__1L22utf16le_to_ucs4_lengthEPKhS1_mmNS_12codecvt_modeE(ptr noundef %0, ptr noundef %1, i64 noundef %2, i64 noundef %3, i32 noundef %4) #0 {
  %6 = alloca ptr, align 8
  %7 = alloca ptr, align 8
  %8 = alloca i64, align 8
  %9 = alloca i64, align 8
  %10 = alloca i32, align 4
  %11 = alloca ptr, align 8
  %12 = alloca i64, align 8
  %13 = alloca i32, align 4
  %14 = alloca i16, align 2
  %15 = alloca i16, align 2
  %16 = alloca i32, align 4
  store ptr %0, ptr %6, align 8, !tbaa !9
  store ptr %1, ptr %7, align 8, !tbaa !9
  store i64 %2, ptr %8, align 8, !tbaa !16
  store i64 %3, ptr %9, align 8, !tbaa !16
  store i32 %4, ptr %10, align 4, !tbaa !502
  call void @llvm.lifetime.start.p0(i64 8, ptr %11) #13
  %17 = load ptr, ptr %6, align 8, !tbaa !9
  store ptr %17, ptr %11, align 8, !tbaa !9
  %18 = load i32, ptr %10, align 4, !tbaa !502
  %19 = and i32 %18, 4
  %20 = icmp ne i32 %19, 0
  br i1 %20, label %21, label %44

21:                                               ; preds = %5
  %22 = load ptr, ptr %7, align 8, !tbaa !9
  %23 = load ptr, ptr %11, align 8, !tbaa !9
  %24 = ptrtoint ptr %22 to i64
  %25 = ptrtoint ptr %23 to i64
  %26 = sub i64 %24, %25
  %27 = icmp sge i64 %26, 2
  br i1 %27, label %28, label %43

28:                                               ; preds = %21
  %29 = load ptr, ptr %11, align 8, !tbaa !9
  %30 = getelementptr inbounds i8, ptr %29, i64 0
  %31 = load i8, ptr %30, align 1, !tbaa !11
  %32 = zext i8 %31 to i32
  %33 = icmp eq i32 %32, 255
  br i1 %33, label %34, label %43

34:                                               ; preds = %28
  %35 = load ptr, ptr %11, align 8, !tbaa !9
  %36 = getelementptr inbounds i8, ptr %35, i64 1
  %37 = load i8, ptr %36, align 1, !tbaa !11
  %38 = zext i8 %37 to i32
  %39 = icmp eq i32 %38, 254
  br i1 %39, label %40, label %43

40:                                               ; preds = %34
  %41 = load ptr, ptr %11, align 8, !tbaa !9
  %42 = getelementptr inbounds i8, ptr %41, i64 2
  store ptr %42, ptr %11, align 8, !tbaa !9
  br label %43

43:                                               ; preds = %40, %34, %28, %21
  br label %44

44:                                               ; preds = %43, %5
  call void @llvm.lifetime.start.p0(i64 8, ptr %12) #13
  store i64 0, ptr %12, align 8, !tbaa !16
  br label %45

45:                                               ; preds = %145, %44
  %46 = load ptr, ptr %11, align 8, !tbaa !9
  %47 = load ptr, ptr %7, align 8, !tbaa !9
  %48 = getelementptr inbounds i8, ptr %47, i64 -1
  %49 = icmp ult ptr %46, %48
  br i1 %49, label %50, label %54

50:                                               ; preds = %45
  %51 = load i64, ptr %12, align 8, !tbaa !16
  %52 = load i64, ptr %8, align 8, !tbaa !16
  %53 = icmp ult i64 %51, %52
  br label %54

54:                                               ; preds = %50, %45
  %55 = phi i1 [ false, %45 ], [ %53, %50 ]
  br i1 %55, label %57, label %56

56:                                               ; preds = %54
  store i32 2, ptr %13, align 4
  br label %148

57:                                               ; preds = %54
  call void @llvm.lifetime.start.p0(i64 2, ptr %14) #13
  %58 = load ptr, ptr %11, align 8, !tbaa !9
  %59 = getelementptr inbounds i8, ptr %58, i64 1
  %60 = load i8, ptr %59, align 1, !tbaa !11
  %61 = zext i8 %60 to i32
  %62 = shl i32 %61, 8
  %63 = load ptr, ptr %11, align 8, !tbaa !9
  %64 = getelementptr inbounds i8, ptr %63, i64 0
  %65 = load i8, ptr %64, align 1, !tbaa !11
  %66 = zext i8 %65 to i32
  %67 = or i32 %62, %66
  %68 = trunc i32 %67 to i16
  store i16 %68, ptr %14, align 2, !tbaa !73
  %69 = load i16, ptr %14, align 2, !tbaa !73
  %70 = zext i16 %69 to i32
  %71 = and i32 %70, 64512
  %72 = icmp eq i32 %71, 56320
  br i1 %72, label %73, label %74

73:                                               ; preds = %57
  store i32 2, ptr %13, align 4
  br label %142

74:                                               ; preds = %57
  %75 = load i16, ptr %14, align 2, !tbaa !73
  %76 = zext i16 %75 to i32
  %77 = and i32 %76, 64512
  %78 = icmp ne i32 %77, 55296
  br i1 %78, label %79, label %88

79:                                               ; preds = %74
  %80 = load i16, ptr %14, align 2, !tbaa !73
  %81 = zext i16 %80 to i64
  %82 = load i64, ptr %9, align 8, !tbaa !16
  %83 = icmp ugt i64 %81, %82
  br i1 %83, label %84, label %85

84:                                               ; preds = %79
  store i32 2, ptr %13, align 4
  br label %142

85:                                               ; preds = %79
  %86 = load ptr, ptr %11, align 8, !tbaa !9
  %87 = getelementptr inbounds i8, ptr %86, i64 2
  store ptr %87, ptr %11, align 8, !tbaa !9
  br label %141

88:                                               ; preds = %74
  %89 = load ptr, ptr %7, align 8, !tbaa !9
  %90 = load ptr, ptr %11, align 8, !tbaa !9
  %91 = ptrtoint ptr %89 to i64
  %92 = ptrtoint ptr %90 to i64
  %93 = sub i64 %91, %92
  %94 = icmp slt i64 %93, 4
  br i1 %94, label %95, label %96

95:                                               ; preds = %88
  store i32 2, ptr %13, align 4
  br label %142

96:                                               ; preds = %88
  call void @llvm.lifetime.start.p0(i64 2, ptr %15) #13
  %97 = load ptr, ptr %11, align 8, !tbaa !9
  %98 = getelementptr inbounds i8, ptr %97, i64 3
  %99 = load i8, ptr %98, align 1, !tbaa !11
  %100 = zext i8 %99 to i32
  %101 = shl i32 %100, 8
  %102 = load ptr, ptr %11, align 8, !tbaa !9
  %103 = getelementptr inbounds i8, ptr %102, i64 2
  %104 = load i8, ptr %103, align 1, !tbaa !11
  %105 = zext i8 %104 to i32
  %106 = or i32 %101, %105
  %107 = trunc i32 %106 to i16
  store i16 %107, ptr %15, align 2, !tbaa !73
  %108 = load i16, ptr %15, align 2, !tbaa !73
  %109 = zext i16 %108 to i32
  %110 = and i32 %109, 64512
  %111 = icmp ne i32 %110, 56320
  br i1 %111, label %112, label %113

112:                                              ; preds = %96
  store i32 2, ptr %13, align 4
  br label %138

113:                                              ; preds = %96
  call void @llvm.lifetime.start.p0(i64 4, ptr %16) #13
  %114 = load i16, ptr %14, align 2, !tbaa !73
  %115 = zext i16 %114 to i32
  %116 = and i32 %115, 960
  %117 = ashr i32 %116, 6
  %118 = add nsw i32 %117, 1
  %119 = shl i32 %118, 16
  %120 = load i16, ptr %14, align 2, !tbaa !73
  %121 = zext i16 %120 to i32
  %122 = and i32 %121, 63
  %123 = shl i32 %122, 10
  %124 = or i32 %119, %123
  %125 = load i16, ptr %15, align 2, !tbaa !73
  %126 = zext i16 %125 to i32
  %127 = and i32 %126, 1023
  %128 = or i32 %124, %127
  store i32 %128, ptr %16, align 4, !tbaa !41
  %129 = load i32, ptr %16, align 4, !tbaa !41
  %130 = zext i32 %129 to i64
  %131 = load i64, ptr %9, align 8, !tbaa !16
  %132 = icmp ugt i64 %130, %131
  br i1 %132, label %133, label %134

133:                                              ; preds = %113
  store i32 2, ptr %13, align 4
  br label %137

134:                                              ; preds = %113
  %135 = load ptr, ptr %11, align 8, !tbaa !9
  %136 = getelementptr inbounds i8, ptr %135, i64 4
  store ptr %136, ptr %11, align 8, !tbaa !9
  store i32 0, ptr %13, align 4
  br label %137

137:                                              ; preds = %134, %133
  call void @llvm.lifetime.end.p0(i64 4, ptr %16) #13
  br label %138

138:                                              ; preds = %137, %112
  call void @llvm.lifetime.end.p0(i64 2, ptr %15) #13
  %139 = load i32, ptr %13, align 4
  switch i32 %139, label %142 [
    i32 0, label %140
  ]

140:                                              ; preds = %138
  br label %141

141:                                              ; preds = %140, %85
  store i32 0, ptr %13, align 4
  br label %142

142:                                              ; preds = %141, %138, %95, %84, %73
  call void @llvm.lifetime.end.p0(i64 2, ptr %14) #13
  %143 = load i32, ptr %13, align 4
  switch i32 %143, label %148 [
    i32 0, label %144
  ]

144:                                              ; preds = %142
  br label %145

145:                                              ; preds = %144
  %146 = load i64, ptr %12, align 8, !tbaa !16
  %147 = add i64 %146, 1
  store i64 %147, ptr %12, align 8, !tbaa !16
  br label %45, !llvm.loop !551

148:                                              ; preds = %142, %56
  call void @llvm.lifetime.end.p0(i64 8, ptr %12) #13
  br label %149

149:                                              ; preds = %148
  %150 = load ptr, ptr %11, align 8, !tbaa !9
  %151 = load ptr, ptr %6, align 8, !tbaa !9
  %152 = ptrtoint ptr %150 to i64
  %153 = ptrtoint ptr %151 to i64
  %154 = sub i64 %152, %153
  %155 = trunc i64 %154 to i32
  store i32 1, ptr %13, align 4
  call void @llvm.lifetime.end.p0(i64 8, ptr %11) #13
  ret i32 %155
}

; Function Attrs: mustprogress uwtable
define dso_local noundef i32 @_ZNKSt3__115__codecvt_utf16IwLb1EE9do_lengthER11__mbstate_tPKcS5_m(ptr noundef nonnull align 8 dereferenceable(36) %0, ptr noundef nonnull align 4 dereferenceable(8) %1, ptr noundef %2, ptr noundef %3, i64 noundef %4) unnamed_addr #2 align 2 {
  %6 = alloca ptr, align 8
  %7 = alloca ptr, align 8
  %8 = alloca ptr, align 8
  %9 = alloca ptr, align 8
  %10 = alloca i64, align 8
  %11 = alloca ptr, align 8
  %12 = alloca ptr, align 8
  store ptr %0, ptr %6, align 8, !tbaa !544
  store ptr %1, ptr %7, align 8, !tbaa !55
  store ptr %2, ptr %8, align 8, !tbaa !9
  store ptr %3, ptr %9, align 8, !tbaa !9
  store i64 %4, ptr %10, align 8, !tbaa !16
  %13 = load ptr, ptr %6, align 8
  call void @llvm.lifetime.start.p0(i64 8, ptr %11) #13
  %14 = load ptr, ptr %8, align 8, !tbaa !9
  store ptr %14, ptr %11, align 8, !tbaa !9
  call void @llvm.lifetime.start.p0(i64 8, ptr %12) #13
  %15 = load ptr, ptr %9, align 8, !tbaa !9
  store ptr %15, ptr %12, align 8, !tbaa !9
  %16 = load ptr, ptr %11, align 8, !tbaa !9
  %17 = load ptr, ptr %12, align 8, !tbaa !9
  %18 = load i64, ptr %10, align 8, !tbaa !16
  %19 = getelementptr inbounds nuw %"class.std::__1::__codecvt_utf16.66", ptr %13, i32 0, i32 1
  %20 = load i64, ptr %19, align 8, !tbaa !546
  %21 = getelementptr inbounds nuw %"class.std::__1::__codecvt_utf16.66", ptr %13, i32 0, i32 2
  %22 = load i32, ptr %21, align 8, !tbaa !548
  %23 = call noundef i32 @_ZNSt3__1L22utf16le_to_ucs4_lengthEPKhS1_mmNS_12codecvt_modeE(ptr noundef %16, ptr noundef %17, i64 noundef %18, i64 noundef %20, i32 noundef %22)
  call void @llvm.lifetime.end.p0(i64 8, ptr %12) #13
  call void @llvm.lifetime.end.p0(i64 8, ptr %11) #13
  ret i32 %23
}