; Function Attrs: mustprogress nofree norecurse nosync nounwind willreturn memory(argmem: read) uwtable
define dso_local noundef i32 @_ZNKSt3__115__codecvt_utf16IwLb1EE9do_lengthER11__mbstate_tPKcS5_m(ptr noundef nonnull readonly align 8 captures(none) dereferenceable(36) %0, ptr nonnull readnone align 4 captures(none) %1, ptr noundef %2, ptr noundef %3, i64 noundef %4) unnamed_addr #28 align 2 {
  %6 = getelementptr inbounds nuw i8, ptr %0, i64 24
  %7 = load i64, ptr %6, align 8, !tbaa !451
  %8 = getelementptr inbounds nuw i8, ptr %0, i64 32
  %9 = load i32, ptr %8, align 8, !tbaa !453
  %10 = and i32 %9, 4
  %.not.i = icmp ne i32 %10, 0
  %11 = ptrtoint ptr %3 to i64
  %12 = ptrtoint ptr %2 to i64
  %13 = sub i64 %11, %12
  %14 = icmp sgt i64 %13, 1
  %or.cond.i = and i1 %14, %.not.i
  br i1 %or.cond.i, label %15, label %22

15:                                               ; preds = %5
  %16 = load i8, ptr %2, align 1, !tbaa !4
  %17 = icmp eq i8 %16, -1
  br i1 %17, label %18, label %22

18:                                               ; preds = %15
  %19 = getelementptr inbounds nuw i8, ptr %2, i64 1
  %20 = load i8, ptr %19, align 1, !tbaa !4
  %21 = icmp eq i8 %20, -2
  %spec.select.idx.i = select i1 %21, i64 2, i64 0
  %spec.select.i = getelementptr inbounds nuw i8, ptr %2, i64 %spec.select.idx.i
  br label %22

22:                                               ; preds = %18, %15, %5
  %.0.i = phi ptr [ %2, %15 ], [ %2, %5 ], [ %spec.select.i, %18 ]
  %23 = getelementptr inbounds i8, ptr %3, i64 -1
  %24 = icmp ult ptr %.0.i, %23
  %25 = icmp ne i64 %4, 0
  %26 = and i1 %25, %24
  br i1 %26, label %.lr.ph.i, label %_ZNSt3__1L22utf16le_to_ucs4_lengthEPKhS1_mmNS_12codecvt_modeE.exit

.lr.ph.i:                                         ; preds = %22, %60
  %.153.i = phi ptr [ %.349.i, %60 ], [ %.0.i, %22 ]
  %.03452.i = phi i64 [ %61, %60 ], [ 0, %22 ]
  %27 = getelementptr inbounds nuw i8, ptr %.153.i, i64 1
  %28 = load i8, ptr %27, align 1, !tbaa !4
  %29 = zext i8 %28 to i16
  %30 = shl nuw i16 %29, 8
  %31 = load i8, ptr %.153.i, align 1, !tbaa !4
  %32 = zext i8 %31 to i16
  %33 = or disjoint i16 %30, %32
  %34 = zext i16 %33 to i32
  %trunc.i = and i16 %30, -1024
  switch i16 %trunc.i, label %35 [
    i16 -9216, label %_ZNSt3__1L22utf16le_to_ucs4_lengthEPKhS1_mmNS_12codecvt_modeE.exit
    i16 -10240, label %37
  ]

35:                                               ; preds = %.lr.ph.i
  %36 = zext i16 %33 to i64
  %.not51.i = icmp ult i64 %7, %36
  %spec.select45.idx.i = select i1 %.not51.i, i64 0, i64 2
  %spec.select45.i = getelementptr inbounds nuw i8, ptr %.153.i, i64 %spec.select45.idx.i
  br i1 %.not51.i, label %_ZNSt3__1L22utf16le_to_ucs4_lengthEPKhS1_mmNS_12codecvt_modeE.exit, label %60

37:                                               ; preds = %.lr.ph.i
  %38 = ptrtoint ptr %.153.i to i64
  %39 = sub i64 %11, %38
  %40 = icmp slt i64 %39, 4
  br i1 %40, label %_ZNSt3__1L22utf16le_to_ucs4_lengthEPKhS1_mmNS_12codecvt_modeE.exit, label %41

41:                                               ; preds = %37
  %42 = getelementptr inbounds nuw i8, ptr %.153.i, i64 3
  %43 = load i8, ptr %42, align 1, !tbaa !4
  %44 = zext i8 %43 to i32
  %45 = and i32 %44, 252
  %.not40.i = icmp eq i32 %45, 220
  br i1 %.not40.i, label %46, label %_ZNSt3__1L22utf16le_to_ucs4_lengthEPKhS1_mmNS_12codecvt_modeE.exit

46:                                               ; preds = %41
  %47 = shl nuw nsw i32 %44, 8
  %48 = getelementptr inbounds nuw i8, ptr %.153.i, i64 2
  %49 = load i8, ptr %48, align 1, !tbaa !4
  %50 = zext i8 %49 to i32
  %51 = shl nuw nsw i32 %34, 10
  %52 = and i32 %51, 983040
  %53 = add nuw nsw i32 %52, 65536
  %54 = and i32 %51, 64512
  %55 = or disjoint i32 %53, %54
  %.masked.i = and i32 %47, 768
  %56 = or disjoint i32 %.masked.i, %50
  %57 = or disjoint i32 %56, %55
  %58 = zext nneg i32 %57 to i64
  %.not50.i = icmp ult i64 %7, %58
  %59 = getelementptr inbounds nuw i8, ptr %.153.i, i64 4
  br i1 %.not50.i, label %_ZNSt3__1L22utf16le_to_ucs4_lengthEPKhS1_mmNS_12codecvt_modeE.exit, label %60

60:                                               ; preds = %46, %35
  %.349.i = phi ptr [ %spec.select45.i, %35 ], [ %59, %46 ]
  %61 = add nuw i64 %.03452.i, 1
  %62 = icmp ult ptr %.349.i, %23
  %63 = icmp ult i64 %61, %4
  %64 = select i1 %62, i1 %63, i1 false
  br i1 %64, label %.lr.ph.i, label %_ZNSt3__1L22utf16le_to_ucs4_lengthEPKhS1_mmNS_12codecvt_modeE.exit, !llvm.loop !456

_ZNSt3__1L22utf16le_to_ucs4_lengthEPKhS1_mmNS_12codecvt_modeE.exit: ; preds = %.lr.ph.i, %35, %37, %41, %46, %60, %22
  %.2.i = phi ptr [ %.0.i, %22 ], [ %.153.i, %46 ], [ %.349.i, %60 ], [ %spec.select45.i, %35 ], [ %.153.i, %.lr.ph.i ], [ %.153.i, %37 ], [ %.153.i, %41 ]
  %65 = ptrtoint ptr %.2.i to i64
  %66 = sub i64 %65, %12
  %67 = trunc i64 %66 to i32
  ret i32 %67
}